Certificate:
    Data:
        Version: 3 (0x2)
        Serial Number:
            1d:51:c1:69:3e:88:7a:2b:2c:41:28:1c:97:34:3f:4d:77:e8:06:92
        Signature Algorithm: ecdsa-with-SHA256
        Issuer: CN = Dev-Root-CA
        Validity
            Not Before: Oct  4 19:37:11 2023 GMT
            Not After : Oct  1 19:37:11 2033 GMT
        Subject: CN = Dev-Sub-CA
        Subject Public Key Info:
            Public Key Algorithm: id-ecPublicKey
                Public-Key: (256 bit)
                pub:
                    04:11:e3:81:0a:d9:3a:20:e6:7a:c4:81:66:87:84:
                    27:0e:b4:1a:fa:24:1e:b8:65:ff:c2:80:fc:02:da:
                    93:c5:3c:84:3c:79:0c:d8:1c:5e:11:75:60:30:2d:
                    4f:6b:46:11:a3:b7:be:99:d7:7b:31:ec:e6:42:21:
                    fe:87:9e:85:a4
                ASN1 OID: prime256v1
                NIST CURVE: P-256
        X509v3 extensions:
            X509v3 Basic Constraints: critical
                CA:TRUE
            X509v3 Key Usage: critical
                Certificate Sign
            X509v3 Subject Key Identifier: 
                68:75:93:28:08:B1:29:DF:21:92:55:81:F8:BC:D2:15:C1:DB:89:50
            X509v3 Authority Key Identifier: 
                3C:19:F1:68:BD:70:B4:74:4B:C5:64:B5:6B:C6:55:EC:C5:8B:68:47
    Signature Algorithm: ecdsa-with-SHA256
    Signature Value:
        30:64:02:30:62:f5:b0:30:61:03:d9:3e:41:08:8a:f4:ab:6b:
        62:07:f7:2e:00:9a:89:5d:df:69:d4:5d:d1:10:bc:af:3f:3e:
        eb:b8:4b:d0:63:80:ff:58:ec:b0:c8:fe:78:c5:6e:70:02:30:
        4d:62:ea:2a:11:a1:3c:38:47:92:31:2e:01:a4:88:17:43:f4:
        e9:f4:b6:b8:94:42:b2:f1:19:0e:5f:4d:0b:5b:84:55:3a:1a:
        1d:2a:82:59:df:9a:fb:6e:1e:2d:ed:85
-----BEGIN CERTIFICATE-----
MIIBrzCCATagAwIBAgIUHVHBaT6IeissQSgclzQ/TXfoBpIwCgYIKoZIzj0EAwIw
FjEUMBIGA1UEAwwLRGV2LVJvb3QtQ0EwHhcNMjMxMDA0MTkzNzExWhcNMzMxMDAx
MTkzNzExWjAVMRMwEQYDVQQDDApEZXYtU3ViLUNBMFkwEwYHKoZIzj0CAQYIKoZI
zj0DAQcDQgAEEeOBCtk6IOZ6xIFmh4QnDrQa+iQeuGX/woD8AtqTxTyEPHkM2Bxe
EXVgMC1Pa0YRo7e+mdd7MezmQiH+h56FpKNjMGEwDwYDVR0TAQH/BAUwAwEB/zAO
BgNVHQ8BAf8EBAMCAgQwHQYDVR0OBBYEFGh1kygIsSnfIZJVgfi80hXB24lQMB8G
A1UdIwQYMBaAFDwZ8Wi9cLR0S8VktWvGVezFi2hHMAoGCCqGSM49BAMCA2cAMGQC
MGL1sDBhA9k+QQiK9KtrYgf3LgCaiV3fadRd0RC8rz8+67hL0GOA/1jssMj+eMVu
cAIwTWLqKhGhPDhHkjEuAaSIF0P06fS2uJRCsvEZDl9NC1uEVToaHSqCWd+a+24e
Le2F
-----END CERTIFICATE-----
